; ModuleID = '49/553.c'
source_filename = "49/553.c"
target datalayout = "e-m:e-p270:32:32-p271:32:32-p272:64:64-i64:64-f80:128-n8:16:32:64-S128"
target triple = "x86_64-pc-linux-gnu"

@.str = private unnamed_addr constant [3 x i8] c"%c\00", align 1
@.str.1 = private unnamed_addr constant [2 x i8] c"\0A\00", align 1

; Function Attrs: noinline nounwind uwtable
define dso_local i32 @main() #0 {
  %1 = alloca i32, align 4
  %2 = alloca [800 x i8], align 16
  %3 = alloca i32, align 4
  %4 = alloca i32, align 4
  %5 = alloca i32, align 4
  %6 = alloca i32, align 4
  %7 = alloca i32, align 4
  %8 = alloca i32, align 4
  store i32 0, i32* %1, align 4
  store i32 0, i32* %4, align 4
  %9 = getelementptr inbounds [800 x i8], [800 x i8]* %2, i64 0, i64 0
  %10 = call i32 (i8*, ...) bitcast (i32 (...)* @gets to i32 (i8*, ...)*)(i8* %9)
  %11 = getelementptr inbounds [800 x i8], [800 x i8]* %2, i64 0, i64 0
  %12 = call i64 @strlen(i8* %11) #3
  %13 = trunc i64 %12 to i32
  store i32 %13, i32* %3, align 4
  store i32 1, i32* %5, align 4
  br label %14

14:                                               ; preds = %91, %0
  %15 = load i32, i32* %5, align 4
  %16 = load i32, i32* %3, align 4
  %17 = icmp slt i32 %15, %16
  br i1 %17, label %18, label %94

18:                                               ; preds = %14
  store i32 0, i32* %6, align 4
  br label %19

19:                                               ; preds = %87, %18
  %20 = load i32, i32* %6, align 4
  %21 = load i32, i32* %3, align 4
  %22 = load i32, i32* %5, align 4
  %23 = sub nsw i32 %21, %22
  %24 = icmp slt i32 %20, %23
  br i1 %24, label %25, label %90

25:                                               ; preds = %19
  %26 = load i32, i32* %6, align 4
  store i32 %26, i32* %7, align 4
  br label %27

27:                                               ; preds = %57, %25
  %28 = load i32, i32* %7, align 4
  %29 = load i32, i32* %6, align 4
  %30 = load i32, i32* %5, align 4
  %31 = sdiv i32 %30, 2
  %32 = add nsw i32 %29, %31
  %33 = icmp sle i32 %28, %32
  br i1 %33, label %34, label %60

34:                                               ; preds = %27
  %35 = load i32, i32* %7, align 4
  %36 = sext i32 %35 to i64
  %37 = getelementptr inbounds [800 x i8], [800 x i8]* %2, i64 0, i64 %36
  %38 = load i8, i8* %37, align 1
  %39 = sext i8 %38 to i32
  %40 = load i32, i32* %6, align 4
  %41 = load i32, i32* %6, align 4
  %42 = add nsw i32 %40, %41
  %43 = load i32, i32* %7, align 4
  %44 = sub nsw i32 %42, %43
  %45 = load i32, i32* %5, align 4
  %46 = add nsw i32 %44, %45
  %47 = sext i32 %46 to i64
  %48 = getelementptr inbounds [800 x i8], [800 x i8]* %2, i64 0, i64 %47
  %49 = load i8, i8* %48, align 1
  %50 = sext i8 %49 to i32
  %51 = icmp eq i32 %39, %50
  br i1 %51, label %52, label %55

52:                                               ; preds = %34
  %53 = load i32, i32* %4, align 4
  %54 = add nsw i32 %53, 1
  store i32 %54, i32* %4, align 4
  br label %56

55:                                               ; preds = %34
  store i32 0, i32* %4, align 4
  br label %60

56:                                               ; preds = %52
  br label %57

57:                                               ; preds = %56
  %58 = load i32, i32* %7, align 4
  %59 = add nsw i32 %58, 1
  store i32 %59, i32* %7, align 4
  br label %27

60:                                               ; preds = %55, %27
  %61 = load i32, i32* %4, align 4
  %62 = load i32, i32* %5, align 4
  %63 = sdiv i32 %62, 2
  %64 = add nsw i32 %63, 1
  %65 = icmp eq i32 %61, %64
  br i1 %65, label %66, label %86

66:                                               ; preds = %60
  %67 = load i32, i32* %6, align 4
  store i32 %67, i32* %8, align 4
  br label %68

68:                                               ; preds = %81, %66
  %69 = load i32, i32* %8, align 4
  %70 = load i32, i32* %5, align 4
  %71 = load i32, i32* %6, align 4
  %72 = add nsw i32 %70, %71
  %73 = icmp sle i32 %69, %72
  br i1 %73, label %74, label %84

74:                                               ; preds = %68
  %75 = load i32, i32* %8, align 4
  %76 = sext i32 %75 to i64
  %77 = getelementptr inbounds [800 x i8], [800 x i8]* %2, i64 0, i64 %76
  %78 = load i8, i8* %77, align 1
  %79 = sext i8 %78 to i32
  %80 = call i32 (i8*, ...) @printf(i8* getelementptr inbounds ([3 x i8], [3 x i8]* @.str, i64 0, i64 0), i32 %79)
  br label %81

81:                                               ; preds = %74
  %82 = load i32, i32* %8, align 4
  %83 = add nsw i32 %82, 1
  store i32 %83, i32* %8, align 4
  br label %68

84:                                               ; preds = %68
  %85 = call i32 (i8*, ...) @printf(i8* getelementptr inbounds ([2 x i8], [2 x i8]* @.str.1, i64 0, i64 0))
  br label %86

86:                                               ; preds = %84, %60
  store i32 0, i32* %4, align 4
  br label %87

87:                                               ; preds = %86
  %88 = load i32, i32* %6, align 4
  %89 = add nsw i32 %88, 1
  store i32 %89, i32* %6, align 4
  br label %19

90:                                               ; preds = %19
  br label %91

91:                                               ; preds = %90
  %92 = load i32, i32* %5, align 4
  %93 = add nsw i32 %92, 1
  store i32 %93, i32* %5, align 4
  br label %14

94:                                               ; preds = %14
  %95 = load i32, i32* %1, align 4
  ret i32 %95
}

declare dso_local i32 @gets(...) #1

; Function Attrs: nounwind readonly
declare dso_local i64 @strlen(i8*) #2

declare dso_local i32 @printf(i8*, ...) #1


!llvm.module.flags = !{!0}
!llvm.ident = !{!1}

!0 = !{i32 1, !"wchar_size", i32 4}
!1 = !{!"clang version 10.0.0-4ubuntu1 "}
